(lp0
(I1
F0.0
tp1
a(I2
F0.0
tp2
a(I1
F0.0
tp3
a(I8
F25.0
tp4
a(I3
F0.0
tp5
a(I2
F50.0
tp6
a(I1
F0.0
tp7
a(I3
F0.0
tp8
a(I2
F0.0
tp9
a(I1
F0.0
tp10
a(I3
F0.0
tp11
a(I1
F0.0
tp12
a(I2
F0.0
tp13
a(I2
F0.0
tp14
a(I1
F100.0
tp15
a(I1
F0.0
tp16
a(I1
F0.0
tp17
a(I2
F50.0
tp18
a(I1
F100.0
tp19
a(I2
F0.0
tp20
a(I1
F0.0
tp21
a(I1
F100.0
tp22
a(I1
F0.0
tp23
a(I1
F0.0
tp24
a(I4
F50.0
tp25
a(I3
F33.333333333333336
tp26
a(I1
F0.0
tp27
a(I1
F100.0
tp28
a(I4
F25.0
tp29
a(I2
F0.0
tp30
a(I5
F0.0
tp31
a(I1
F0.0
tp32
a(I1
F0.0
tp33
a(I1
F0.0
tp34
a(I1
F0.0
tp35
a(I1
F100.0
tp36
a(I1
F100.0
tp37
a(I1
F0.0
tp38
a(I1
F0.0
tp39
a(I1
F0.0
tp40
a(I1
F0.0
tp41
a(I1
F0.0
tp42
a(I1
F100.0
tp43
a(I2
F50.0
tp44
a(I1
F0.0
tp45
a(I1
F0.0
tp46
a(I2
F50.0
tp47
a(I1
F0.0
tp48
a(I4
F0.0
tp49
a(I2
F0.0
tp50
a(I1
F0.0
tp51
a(I1
F100.0
tp52
a(I1
F0.0
tp53
a(I1
F0.0
tp54
a(I1
F0.0
tp55
a(I1
F0.0
tp56
a(I2
F50.0
tp57
a(I3
F0.0
tp58
a(I1
F0.0
tp59
a(I3
F33.333333333333336
tp60
a(I5
F40.0
tp61
a(I2
F0.0
tp62
a(I2
F0.0
tp63
a(I1
F0.0
tp64
a(I1
F0.0
tp65
a(I2
F0.0
tp66
a(I1
F0.0
tp67
a(I2
F50.0
tp68
a(I1
F0.0
tp69
a(I3
F66.66666666666667
tp70
a(I1
F0.0
tp71
a(I1
F0.0
tp72
a(I1
F0.0
tp73
a(I1
F100.0
tp74
a(I2
F0.0
tp75
a(I2
F50.0
tp76
a(I2
F0.0
tp77
a(I5
F20.0
tp78
a(I1
F100.0
tp79
a(I4
F50.0
tp80
a(I1
F100.0
tp81
a(I2
F0.0
tp82
a(I1
F0.0
tp83
a(I1
F0.0
tp84
a(I2
F0.0
tp85
a(I1
F0.0
tp86
a(I1
F0.0
tp87
a(I1
F100.0
tp88
a(I2
F0.0
tp89
a(I1
F0.0
tp90
a(I1
F100.0
tp91
a(I1
F0.0
tp92
a(I1
F0.0
tp93
a(I5
F60.0
tp94
a(I1
F100.0
tp95
a(I1
F0.0
tp96
a(I1
F0.0
tp97
a(I2
F50.0
tp98
a(I6
F33.333333333333336
tp99
a(I5
F0.0
tp100
a.